target datalayout = "e-m:e-p270:32:32-p271:32:32-p272:64:64-i64:64-i128:128-f80:128-n8:16:32:64-S128"
target triple = "x86_64-unknown-linux-gnu"

%"class.node::MemoryRetainer" = type { ptr }
%"class.v8::IndirectHandleBase" = type { ptr }
%"class.node::quic::Endpoint::UDP" = type <{ %"class.node::MemoryRetainer", %"class.node::BaseObjectPtrImpl", i8, i8, [6 x i8] }>
%"class.node::BaseObjectPtrImpl" = type { %union.anon }
%union.anon = type { ptr }
%"class.node::BaseObject" = type { %"class.node::MemoryRetainer", %"class.v8::Global", ptr, ptr }
%"class.v8::Global" = type { %"class.v8::PersistentBase" }
%"class.v8::PersistentBase" = type { %"class.v8::IndirectHandleBase" }
%struct.uv__queue = type { ptr, ptr }
%"class.node::ListNode" = type { ptr, ptr }
%"class.node::quic::Endpoint::UDP::Impl" = type { %"class.node::HandleWrap", %struct.uv_udp_s, ptr }
%"class.node::HandleWrap" = type { %"class.node::AsyncWrap", i32, %"class.node::ListNode", ptr }
%"class.node::AsyncWrap" = type { %"class.node::BaseObject", i32, i8, double, double }
%struct.uv_udp_s = type { ptr, ptr, i32, ptr, %struct.uv__queue, %union.anon.411, ptr, i32, i64, i64, ptr, ptr, %struct.uv__io_s, %struct.uv__queue, %struct.uv__queue }
%union.anon.411 = type { [4 x ptr] }
%struct.uv__io_s = type { ptr, %struct.uv__queue, %struct.uv__queue, i32, i32, i32 }

; Function Attrs: mustprogress nounwind uwtable
define linkonce_odr dso_local noundef ptr @_ZNK4node17BaseObjectPtrImplINS_4quic8Endpoint3UDP4ImplELb0EE15get_base_objectEv(ptr noundef nonnull align 8 dereferenceable(8) %this) #4 comdat align 2 {
entry:
  %this.addr = alloca ptr, align 8
  store ptr %this, ptr %this.addr, align 8
  %this1 = load ptr, ptr %this.addr, align 8
  %data_ = getelementptr inbounds %"class.node::BaseObjectPtrImpl", ptr %this1, i32 0, i32 0
  %0 = load ptr, ptr %data_, align 8
  ret ptr %0
}

; Function Attrs: mustprogress nounwind uwtable
define linkonce_odr dso_local noundef ptr @_ZNK4node17BaseObjectPtrImplINS_4quic8Endpoint3UDP4ImplELb0EE3getEv(ptr noundef nonnull align 8 dereferenceable(8) %this) #4 comdat align 2 {
entry:
  %this.addr = alloca ptr, align 8
  store ptr %this, ptr %this.addr, align 8
  %this1 = load ptr, ptr %this.addr, align 8
  %call = call noundef ptr @_ZNK4node17BaseObjectPtrImplINS_4quic8Endpoint3UDP4ImplELb0EE15get_base_objectEv(ptr noundef nonnull align 8 dereferenceable(8) %this1)
  ret ptr %call
}

; Function Attrs: mustprogress nounwind uwtable
define linkonce_odr dso_local noundef zeroext i1 @_ZNK4node17BaseObjectPtrImplINS_4quic8Endpoint3UDP4ImplELb0EEcvbEv(ptr noundef nonnull align 8 dereferenceable(8) %this) #4 comdat align 2 {
entry:
  %this.addr = alloca ptr, align 8
  store ptr %this, ptr %this.addr, align 8
  %this1 = load ptr, ptr %this.addr, align 8
  %call = call noundef ptr @_ZNK4node17BaseObjectPtrImplINS_4quic8Endpoint3UDP4ImplELb0EE3getEv(ptr noundef nonnull align 8 dereferenceable(8) %this1)
  %cmp = icmp ne ptr %call, null
  ret i1 %cmp
}

; Function Attrs: mustprogress nounwind uwtable
define linkonce_odr dso_local void @_ZN4node3USEIiEEvOT_(ptr noundef nonnull align 4 dereferenceable(4) %0) #4 comdat {
entry:
  %.addr = alloca ptr, align 8
  store ptr %0, ptr %.addr, align 8
  ret void
}

; Function Attrs: mustprogress nounwind uwtable
define linkonce_odr dso_local noundef zeroext i1 @_ZNK4node10HandleWrap15IsHandleClosingEv(ptr noundef nonnull align 8 dereferenceable(88) %this) #4 comdat align 2 {
entry:
  %this.addr = alloca ptr, align 8
  store ptr %this, ptr %this.addr, align 8
  %this1 = load ptr, ptr %this.addr, align 8
  %state_ = getelementptr inbounds %"class.node::HandleWrap", ptr %this1, i32 0, i32 1
  %0 = load i32, ptr %state_, align 8
  %cmp = icmp eq i32 %0, 1
  br i1 %cmp, label %lor.end, label %lor.rhs

lor.rhs:                                          ; preds = %entry
  %state_2 = getelementptr inbounds %"class.node::HandleWrap", ptr %this1, i32 0, i32 1
  %1 = load i32, ptr %state_2, align 8
  %cmp3 = icmp eq i32 %1, 2
  br label %lor.end

lor.end:                                          ; preds = %lor.rhs, %entry
  %2 = phi i1 [ true, %entry ], [ %cmp3, %lor.rhs ]
  ret i1 %2
}

; Function Attrs: mustprogress nounwind uwtable
define linkonce_odr dso_local noundef ptr @_ZNK4node17BaseObjectPtrImplINS_4quic8Endpoint3UDP4ImplELb0EEptEv(ptr noundef nonnull align 8 dereferenceable(8) %this) #4 comdat align 2 {
entry:
  %this.addr = alloca ptr, align 8
  store ptr %this, ptr %this.addr, align 8
  %this1 = load ptr, ptr %this.addr, align 8
  %call = call noundef ptr @_ZNK4node17BaseObjectPtrImplINS_4quic8Endpoint3UDP4ImplELb0EE3getEv(ptr noundef nonnull align 8 dereferenceable(8) %this1)
  ret ptr %call
}

; Function Attrs: mustprogress nounwind uwtable
define dso_local noundef zeroext i1 @_ZNK4node4quic8Endpoint3UDP9is_closedEv(ptr noundef nonnull align 8 dereferenceable(24) %this) #4 align 2 {
entry:
  %this.addr = alloca ptr, align 8
  store ptr %this, ptr %this.addr, align 8
  %this1 = load ptr, ptr %this.addr, align 8
  %impl_ = getelementptr inbounds %"class.node::quic::Endpoint::UDP", ptr %this1, i32 0, i32 1
  %call = call noundef zeroext i1 @_ZNK4node17BaseObjectPtrImplINS_4quic8Endpoint3UDP4ImplELb0EEcvbEv(ptr noundef nonnull align 8 dereferenceable(8) %impl_)
  %lnot = xor i1 %call, true
  ret i1 %lnot
}

; Function Attrs: mustprogress nounwind uwtable
define dso_local void @_ZN4node4quic8Endpoint3UDP4StopEv(ptr noundef nonnull align 8 dereferenceable(24) %this) #4 align 2 {
entry:
  %this.addr = alloca ptr, align 8
  %ref.tmp = alloca i32, align 4
  store ptr %this, ptr %this.addr, align 8
  %this1 = load ptr, ptr %this.addr, align 8
  %call = call noundef zeroext i1 @_ZNK4node4quic8Endpoint3UDP9is_closedEv(ptr noundef nonnull align 8 dereferenceable(24) %this1)
  br i1 %call, label %if.then, label %lor.lhs.false

lor.lhs.false:                                    ; preds = %entry
  %impl_ = getelementptr inbounds %"class.node::quic::Endpoint::UDP", ptr %this1, i32 0, i32 1
  %call2 = call noundef ptr @_ZNK4node17BaseObjectPtrImplINS_4quic8Endpoint3UDP4ImplELb0EEptEv(ptr noundef nonnull align 8 dereferenceable(8) %impl_)
  %call3 = call noundef zeroext i1 @_ZNK4node10HandleWrap15IsHandleClosingEv(ptr noundef nonnull align 8 dereferenceable(88) %call2)
  br i1 %call3, label %if.then, label %lor.lhs.false4

lor.lhs.false4:                                   ; preds = %lor.lhs.false
  %is_started_ = getelementptr inbounds %"class.node::quic::Endpoint::UDP", ptr %this1, i32 0, i32 3
  %0 = load i8, ptr %is_started_, align 1
  %tobool = trunc i8 %0 to i1
  br i1 %tobool, label %if.end, label %if.then

if.then:                                          ; preds = %lor.lhs.false4, %lor.lhs.false, %entry
  br label %return

if.end:                                           ; preds = %lor.lhs.false4
  %impl_5 = getelementptr inbounds %"class.node::quic::Endpoint::UDP", ptr %this1, i32 0, i32 1
  %call6 = call noundef ptr @_ZNK4node17BaseObjectPtrImplINS_4quic8Endpoint3UDP4ImplELb0EEptEv(ptr noundef nonnull align 8 dereferenceable(8) %impl_5)
  %handle_ = getelementptr inbounds %"class.node::quic::Endpoint::UDP::Impl", ptr %call6, i32 0, i32 1
  %call7 = call i32 @uv_udp_recv_stop(ptr noundef %handle_)
  store i32 %call7, ptr %ref.tmp, align 4
  call void @_ZN4node3USEIiEEvOT_(ptr noundef nonnull align 4 dereferenceable(4) %ref.tmp)
  %is_started_8 = getelementptr inbounds %"class.node::quic::Endpoint::UDP", ptr %this1, i32 0, i32 3
  store i8 0, ptr %is_started_8, align 1
  br label %return

return:                                           ; preds = %if.end, %if.then
  ret void
}